target datalayout = "e-m:e-p270:32:32-p271:32:32-p272:64:64-i64:64-i128:128-f80:128-n8:16:32:64-S128"
target triple = "x86_64-pc-linux-gnu"

%"class.icu_77::number::Precision.base" = type <{ i32, [4 x i8], %"union.icu_77::number::Precision::PrecisionUnion", i32 }>
%"union.icu_77::number::Precision::PrecisionUnion" = type { %"struct.icu_77::number::Precision::PrecisionUnion::IncrementSettings" }
%"struct.icu_77::number::Precision::PrecisionUnion::IncrementSettings" = type { i64, i16, i16 }
%"class.icu_77::number::Precision" = type <{ i32, [4 x i8], %"union.icu_77::number::Precision::PrecisionUnion", i32, [4 x i8] }>
%"class.icu_77::number::CurrencyPrecision" = type { %"class.icu_77::number::Precision.base", [4 x i8] }

; Function Attrs: mustprogress nounwind uwtable
define linkonce_odr void @_ZN6icu_776number9PrecisionC2ERKNS1_13PrecisionTypeERKNS1_14PrecisionUnionE(ptr noundef nonnull align 8 dereferenceable(28) %0, ptr noundef nonnull align 4 dereferenceable(4) %1, ptr noundef nonnull align 8 dereferenceable(16) %2) unnamed_addr #0 comdat align 2 {
  %4 = alloca ptr, align 8
  %5 = alloca ptr, align 8
  %6 = alloca ptr, align 8
  store ptr %0, ptr %4, align 8, !tbaa !25
  store ptr %1, ptr %5, align 8, !tbaa !22
  store ptr %2, ptr %6, align 8, !tbaa !63
  %7 = load ptr, ptr %4, align 8
  %8 = getelementptr inbounds nuw %"class.icu_77::number::Precision", ptr %7, i32 0, i32 0
  %9 = load ptr, ptr %5, align 8, !tbaa !22
  %10 = load i32, ptr %9, align 4, !tbaa !52
  store i32 %10, ptr %8, align 8, !tbaa !65
  %11 = getelementptr inbounds nuw %"class.icu_77::number::Precision", ptr %7, i32 0, i32 2
  %12 = load ptr, ptr %6, align 8, !tbaa !63
  call void @llvm.memcpy.p0.p0.i64(ptr align 8 %11, ptr align 8 %12, i64 16, i1 false), !tbaa.struct !68
  %13 = getelementptr inbounds nuw %"class.icu_77::number::Precision", ptr %7, i32 0, i32 3
  store i32 0, ptr %13, align 8, !tbaa !69
  ret void
}

; Function Attrs: inlinehint mustprogress nounwind uwtable
define linkonce_odr void @_ZN6icu_776number17CurrencyPrecisionCI2NS0_9PrecisionEERKNS0_9Precision13PrecisionTypeERKNS2_14PrecisionUnionE(ptr noundef nonnull align 8 dereferenceable(28) %0, ptr noundef nonnull align 4 dereferenceable(4) %1, ptr noundef nonnull align 8 dereferenceable(16) %2) unnamed_addr #2 comdat align 2 {
  %4 = alloca ptr, align 8
  %5 = alloca ptr, align 8
  %6 = alloca ptr, align 8
  store ptr %0, ptr %4, align 8, !tbaa !91
  store ptr %1, ptr %5, align 8, !tbaa !22
  store ptr %2, ptr %6, align 8, !tbaa !63
  %7 = load ptr, ptr %4, align 8
  %8 = load ptr, ptr %5, align 8
  %9 = load ptr, ptr %6, align 8
  call void @_ZN6icu_776number9PrecisionC2ERKNS1_13PrecisionTypeERKNS1_14PrecisionUnionE(ptr noundef nonnull align 8 dereferenceable(28) %7, ptr noundef nonnull align 4 dereferenceable(4) %8, ptr noundef nonnull align 8 dereferenceable(16) %9)
  ret void
}

; Function Attrs: mustprogress uwtable
define void @_ZN6icu_776number9Precision17constructCurrencyE14UCurrencyUsage(ptr dead_on_unwind noalias writable sret(%"class.icu_77::number::CurrencyPrecision") align 8 %0, i32 noundef %1) #1 align 2 {
  %3 = alloca i32, align 4
  %4 = alloca %"union.icu_77::number::Precision::PrecisionUnion", align 8
  %5 = alloca i32, align 4
  store i32 %1, ptr %3, align 4, !tbaa !85
  call void @llvm.lifetime.start.p0(i64 16, ptr %4) #13
  call void @llvm.memset.p0.i64(ptr align 8 %4, i8 0, i64 16, i1 false)
  %6 = load i32, ptr %3, align 4, !tbaa !85
  store i32 %6, ptr %4, align 8, !tbaa !33
  call void @llvm.lifetime.start.p0(i64 4, ptr %5) #13
  store i32 8, ptr %5, align 4, !tbaa !52
  call void @_ZN6icu_776number17CurrencyPrecisionCI2NS0_9PrecisionEERKNS0_9Precision13PrecisionTypeERKNS2_14PrecisionUnionE(ptr noundef nonnull align 8 dereferenceable(28) %0, ptr noundef nonnull align 4 dereferenceable(4) %5, ptr noundef nonnull align 8 dereferenceable(16) %4)
  call void @llvm.lifetime.end.p0(i64 4, ptr %5) #13
  call void @llvm.lifetime.end.p0(i64 16, ptr %4) #13
  ret void
}